; Function Attrs: mustprogress uwtable
define void @_ZNK18llama_model_loader20done_getting_tensorsEv(ptr noundef nonnull readonly align 8 captures(none) dereferenceable(320) %0) local_unnamed_addr #1 align 2 personality ptr @__gxx_personality_v0 {
  %2 = alloca %"class.std::__cxx11::basic_string", align 8
  %3 = getelementptr inbounds nuw i8, ptr %0, i64 8
  %4 = load i32, ptr %3, align 8, !tbaa !80
  %5 = getelementptr inbounds nuw i8, ptr %0, i64 4
  %6 = load i32, ptr %5, align 4, !tbaa !79
  %.not = icmp eq i32 %4, %6
  br i1 %.not, label %25, label %7

7:                                                ; preds = %1
  %8 = tail call ptr @__cxa_allocate_exception(i64 16) #32
  call void @llvm.lifetime.start.p0(i64 32, ptr nonnull %2) #32
  %9 = load i32, ptr %5, align 4, !tbaa !79
  %10 = load i32, ptr %3, align 8, !tbaa !80
  invoke void (ptr, ptr, ...) @_Z6formatB5cxx11PKcz(ptr dead_on_unwind nonnull writable sret(%"class.std::__cxx11::basic_string") align 8 %2, ptr noundef nonnull @.str.31, ptr noundef nonnull @__func__._ZNK18llama_model_loader20done_getting_tensorsEv, i32 noundef %9, i32 noundef %10)
          to label %11 unwind label %_ZNSt7__cxx1112basic_stringIcSt11char_traitsIcESaIcEED2Ev.exit.thread

11:                                               ; preds = %7
  invoke void @_ZNSt13runtime_errorC1ERKNSt7__cxx1112basic_stringIcSt11char_traitsIcESaIcEEE(ptr noundef nonnull align 8 dereferenceable(16) %8, ptr noundef nonnull align 8 dereferenceable(32) %2)
          to label %12 unwind label %14

12:                                               ; preds = %11
  invoke void @__cxa_throw(ptr nonnull %8, ptr nonnull @_ZTISt13runtime_error, ptr nonnull @_ZNSt13runtime_errorD1Ev) #34
          to label %27 unwind label %14

_ZNSt7__cxx1112basic_stringIcSt11char_traitsIcESaIcEED2Ev.exit.thread: ; preds = %7
  %13 = landingpad { ptr, i32 }
          cleanup
  call void @llvm.lifetime.end.p0(i64 32, ptr nonnull %2) #32
  br label %24

14:                                               ; preds = %12, %11
  %.0 = phi i1 [ false, %12 ], [ true, %11 ]
  %15 = landingpad { ptr, i32 }
          cleanup
  %16 = load ptr, ptr %2, align 8, !tbaa !3
  %17 = getelementptr inbounds nuw i8, ptr %2, i64 16
  %18 = icmp eq ptr %16, %17
  br i1 %18, label %_ZNKSt7__cxx1112basic_stringIcSt11char_traitsIcESaIcEE11_M_is_localEv.exit.thread.i.i, label %_ZNSt7__cxx1112basic_stringIcSt11char_traitsIcESaIcEED2Ev.exit

_ZNKSt7__cxx1112basic_stringIcSt11char_traitsIcESaIcEE11_M_is_localEv.exit.thread.i.i: ; preds = %14
  %19 = getelementptr inbounds nuw i8, ptr %2, i64 8
  %20 = load i64, ptr %19, align 8, !tbaa !11
  %21 = icmp ult i64 %20, 16
  call void @llvm.assume(i1 %21)
  call void @llvm.lifetime.end.p0(i64 32, ptr nonnull %2) #32
  br i1 %.0, label %24, label %26

_ZNSt7__cxx1112basic_stringIcSt11char_traitsIcESaIcEED2Ev.exit: ; preds = %14
  %22 = load i64, ptr %17, align 8, !tbaa !12
  %23 = add i64 %22, 1
  call void @_ZdlPvm(ptr noundef %16, i64 noundef %23) #33
  call void @llvm.lifetime.end.p0(i64 32, ptr nonnull %2) #32
  br i1 %.0, label %24, label %26

24:                                               ; preds = %_ZNKSt7__cxx1112basic_stringIcSt11char_traitsIcESaIcEE11_M_is_localEv.exit.thread.i.i, %_ZNSt7__cxx1112basic_stringIcSt11char_traitsIcESaIcEED2Ev.exit.thread, %_ZNSt7__cxx1112basic_stringIcSt11char_traitsIcESaIcEED2Ev.exit
  %.pn9 = phi { ptr, i32 } [ %13, %_ZNSt7__cxx1112basic_stringIcSt11char_traitsIcESaIcEED2Ev.exit.thread ], [ %15, %_ZNSt7__cxx1112basic_stringIcSt11char_traitsIcESaIcEED2Ev.exit ], [ %15, %_ZNKSt7__cxx1112basic_stringIcSt11char_traitsIcESaIcEE11_M_is_localEv.exit.thread.i.i ]
  call void @__cxa_free_exception(ptr %8) #32
  br label %26

25:                                               ; preds = %1
  ret void

26:                                               ; preds = %_ZNKSt7__cxx1112basic_stringIcSt11char_traitsIcESaIcEE11_M_is_localEv.exit.thread.i.i, %_ZNSt7__cxx1112basic_stringIcSt11char_traitsIcESaIcEED2Ev.exit, %24
  %.pn8 = phi { ptr, i32 } [ %15, %_ZNSt7__cxx1112basic_stringIcSt11char_traitsIcESaIcEED2Ev.exit ], [ %.pn9, %24 ], [ %15, %_ZNKSt7__cxx1112basic_stringIcSt11char_traitsIcESaIcEE11_M_is_localEv.exit.thread.i.i ]
  resume { ptr, i32 } %.pn8

27:                                               ; preds = %12
  unreachable
}